Certificate:
    Data:
        Version: 3 (0x2)
        Serial Number: 1 (0x1)
    Signature Algorithm: sha256WithRSAEncryption
        Issuer: C=JP, ST=Fukuoka, L=Fukuoka, O=dev.hakata.micware.com, CN=localCa/emailAddress=webmaster@dev.hakata.micware.com
        Validity
            Not Before: Jun 11 05:51:55 2019 GMT
            Not After : Jun  8 05:51:55 2029 GMT
        Subject: C=JP, ST=Fukuoka, O=dev.hakata.micware.com, CN=localCa/emailAddress=webmaster@dev.hakata.micware.com
        Subject Public Key Info:
            Public Key Algorithm: rsaEncryption
                Public-Key: (2048 bit)
                Modulus:
                    00:de:16:1b:5a:3c:ab:3f:c1:1f:de:2d:f0:3b:7f:
                    48:8c:a5:70:8a:5e:d7:fd:78:1d:f7:29:f7:5a:4a:
                    7b:22:f8:6d:c9:b2:0b:5d:53:fe:6c:f9:d1:87:4c:
                    a3:1e:1a:a2:c6:a8:e2:fa:a0:2f:1f:39:72:b0:1f:
                    72:2c:b4:ae:d5:ef:d0:87:d9:26:3a:9e:37:39:2c:
                    a4:ad:b0:11:92:06:67:b3:c4:7c:80:3f:4f:67:1e:
                    1d:2f:79:bc:83:2b:f2:7c:02:97:c2:c1:78:8d:1d:
                    0c:20:58:7d:79:c4:7b:f6:61:4a:14:a9:96:c4:0c:
                    8d:7a:02:13:0a:13:8d:b0:7e:04:92:e8:4e:f7:3a:
                    02:d7:6b:61:4b:b7:86:2d:36:c3:6e:5e:88:93:02:
                    99:a9:78:03:5a:80:34:01:8c:cb:cc:7f:05:30:8c:
                    2d:15:d8:92:1c:c4:da:bb:cb:53:34:a3:74:23:20:
                    b1:66:a0:b7:c7:8a:a1:8c:9a:32:1c:9e:8b:14:bc:
                    3a:11:26:3f:f0:e5:1b:fd:6e:21:b1:dd:e1:56:98:
                    fe:17:af:7d:8e:34:a4:f6:65:32:ac:24:f2:c9:a0:
                    e4:85:b4:c3:63:7e:2e:12:eb:b3:ea:96:03:54:d2:
                    63:61:29:69:01:95:7b:99:3a:71:71:f2:ca:07:ff:
                    f0:2b
                Exponent: 65537 (0x10001)
        X509v3 extensions:
            X509v3 Subject Alternative Name: 
                DNS:localCa
    Signature Algorithm: sha256WithRSAEncryption
         4a:81:ba:8a:35:10:e6:f5:1b:68:ee:65:90:4e:b6:71:c6:77:
         1d:67:c1:c7:5c:ab:f4:33:2b:e0:b3:08:ae:eb:69:69:44:1c:
         84:af:f1:65:32:d7:7b:7b:55:78:25:f1:69:c3:ba:55:d7:d5:
         8c:cb:8b:8c:35:75:5f:a6:06:7f:75:c0:73:9a:0d:7c:dd:59:
         96:7d:b7:25:fc:b1:c2:83:a5:00:39:22:d1:ff:ea:39:35:dd:
         66:7f:ba:d5:6c:60:95:dd:73:d5:65:32:20:53:ee:9b:b0:76:
         cb:0a:9c:fd:d7:14:20:41:75:b9:14:b3:03:d5:8b:e0:19:d9:
         de:92:17:c3:e8:c3:b9:17:ef:5a:99:bd:a1:ee:fa:c7:5b:56:
         8b:b4:50:0d:3e:9f:fe:68:b9:d0:e3:89:c0:95:14:5c:ec:10:
         b7:81:c2:05:51:f4:0f:78:d2:15:52:9f:ea:a5:45:75:d9:71:
         8c:df:cd:c7:fc:33:5e:85:73:a4:12:12:3f:ed:57:3a:99:23:
         8d:1c:76:e4:9f:e3:89:ed:ff:dd:13:c8:17:b5:69:2a:c7:70:
         7a:f8:28:9e:d8:82:ea:4f:a0:a5:c8:2f:a3:76:a6:08:3a:b6:
         73:ce:42:f8:10:d9:a8:c2:57:4d:e8:34:ee:5a:35:df:29:53:
         65:2d:ce:3e
-----BEGIN CERTIFICATE-----
MIIDqzCCApOgAwIBAgIBATANBgkqhkiG9w0BAQsFADCBlTELMAkGA1UEBhMCSlAx
EDAOBgNVBAgMB0Z1a3Vva2ExEDAOBgNVBAcMB0Z1a3Vva2ExHzAdBgNVBAoMFmRl
di5oYWthdGEubWljd2FyZS5jb20xEDAOBgNVBAMMB2xvY2FsQ2ExLzAtBgkqhkiG
9w0BCQEWIHdlYm1hc3RlckBkZXYuaGFrYXRhLm1pY3dhcmUuY29tMB4XDTE5MDYx
MTA1NTE1NVoXDTI5MDYwODA1NTE1NVowgYMxCzAJBgNVBAYTAkpQMRAwDgYDVQQI
DAdGdWt1b2thMR8wHQYDVQQKDBZkZXYuaGFrYXRhLm1pY3dhcmUuY29tMRAwDgYD
VQQDDAdsb2NhbENhMS8wLQYJKoZIhvcNAQkBFiB3ZWJtYXN0ZXJAZGV2Lmhha2F0
YS5taWN3YXJlLmNvbTCCASIwDQYJKoZIhvcNAQEBBQADggEPADCCAQoCggEBAN4W
G1o8qz/BH94t8Dt/SIylcIpe1/14Hfcp91pKeyL4bcmyC11T/mz50YdMox4aosao
4vqgLx85crAfciy0rtXv0IfZJjqeNzkspK2wEZIGZ7PEfIA/T2ceHS95vIMr8nwC
l8LBeI0dDCBYfXnEe/ZhShSplsQMjXoCEwoTjbB+BJLoTvc6AtdrYUu3hi02w25e
iJMCmal4A1qANAGMy8x/BTCMLRXYkhzE2rvLUzSjdCMgsWagt8eKoYyaMhyeixS8
OhEmP/DlG/1uIbHd4VaY/hevfY40pPZlMqwk8smg5IW0w2N+LhLrs+qWA1TSY2Ep
aQGVe5k6cXHyygf/8CsCAwEAAaMWMBQwEgYDVR0RBAswCYIHbG9jYWxDYTANBgkq
hkiG9w0BAQsFAAOCAQEASoG6ijUQ5vUbaO5lkE62ccZ3HWfBx1yr9DMr4LMIrutp
aUQchK/xZTLXe3tVeCXxacO6VdfVjMuLjDV1X6YGf3XAc5oNfN1Zln23JfyxwoOl
ADki0f/qOTXdZn+61Wxgld1z1WUyIFPum7B2ywqc/dcUIEF1uRSzA9WL4BnZ3pIX
w+jDuRfvWpm9oe76x1tWi7RQDT6f/mi50OOJwJUUXOwQt4HCBVH0D3jSFVKf6qVF
ddlxjN/Nx/wzXoVzpBISP+1XOpkjjRx25J/jie3/3RPIF7VpKsdwevgontiC6k+g
pcgvo3amCDq2c85C+BDZqMJXTeg07lo13ylTZS3OPg==
-----END CERTIFICATE-----
